target datalayout = "e-m:e-p270:32:32-p271:32:32-p272:64:64-i64:64-i128:128-f80:128-n8:16:32:64-S128"
target triple = "x86_64-pc-linux-gnu"

%struct.quic_cid = type { i8, [20 x i8], [16 x i8], i8, i64, i64 }

; Function Attrs: nounwind null_pointer_is_valid sspstrong uwtable
define internal i32 @quic_connection_equal(ptr noundef %0, ptr noundef %1) #3 {
  %3 = alloca ptr, align 8
  %4 = alloca ptr, align 8
  %5 = alloca ptr, align 8
  %6 = alloca ptr, align 8
  store ptr %0, ptr %3, align 8
  store ptr %1, ptr %4, align 8
  call void @llvm.lifetime.start.p0(i64 8, ptr %5) #19
  %7 = load ptr, ptr %3, align 8
  store ptr %7, ptr %5, align 8
  call void @llvm.lifetime.start.p0(i64 8, ptr %6) #19
  %8 = load ptr, ptr %4, align 8
  store ptr %8, ptr %6, align 8
  %9 = load ptr, ptr %5, align 8
  %10 = getelementptr inbounds nuw %struct.quic_cid, ptr %9, i32 0, i32 0
  %11 = load i8, ptr %10, align 8
  %12 = zext i8 %11 to i32
  %13 = load ptr, ptr %6, align 8
  %14 = getelementptr inbounds nuw %struct.quic_cid, ptr %13, i32 0, i32 0
  %15 = load i8, ptr %14, align 8
  %16 = zext i8 %15 to i32
  %17 = icmp eq i32 %12, %16
  br i1 %17, label %18, label %32

18:                                               ; preds = %2
  %19 = load ptr, ptr %5, align 8
  %20 = getelementptr inbounds nuw %struct.quic_cid, ptr %19, i32 0, i32 1
  %21 = getelementptr inbounds [20 x i8], ptr %20, i64 0, i64 0
  %22 = load ptr, ptr %6, align 8
  %23 = getelementptr inbounds nuw %struct.quic_cid, ptr %22, i32 0, i32 1
  %24 = getelementptr inbounds [20 x i8], ptr %23, i64 0, i64 0
  %25 = load ptr, ptr %5, align 8
  %26 = getelementptr inbounds nuw %struct.quic_cid, ptr %25, i32 0, i32 0
  %27 = load i8, ptr %26, align 8
  %28 = zext i8 %27 to i64
  %29 = call i32 @memcmp(ptr noundef %21, ptr noundef %24, i64 noundef %28) #22
  %30 = icmp ne i32 %29, 0
  %31 = xor i1 %30, true
  br label %32

32:                                               ; preds = %18, %2
  %33 = phi i1 [ false, %2 ], [ %31, %18 ]
  %34 = zext i1 %33 to i32
  call void @llvm.lifetime.end.p0(i64 8, ptr %6) #19
  call void @llvm.lifetime.end.p0(i64 8, ptr %5) #19
  ret i32 %34
}