; Function Attrs: mustprogress nofree nounwind null_pointer_is_valid sspstrong willreturn memory(argmem: read) uwtable
define internal range(i32 0, 2) i32 @quic_connection_equal(ptr noundef readonly captures(none) %0, ptr noundef readonly captures(none) %1) #3 {
  %3 = load i8, ptr %0, align 8
  %4 = load i8, ptr %1, align 8
  %5 = icmp eq i8 %3, %4
  br i1 %5, label %6, label %11

6:                                                ; preds = %2
  %7 = getelementptr inbounds nuw i8, ptr %0, i64 1
  %8 = getelementptr inbounds nuw i8, ptr %1, i64 1
  %9 = zext i8 %3 to i64
  %bcmp = tail call i32 @bcmp(ptr nonnull %7, ptr nonnull %8, i64 %9)
  %.not = icmp eq i32 %bcmp, 0
  %10 = zext i1 %.not to i32
  br label %11

11:                                               ; preds = %6, %2
  %12 = phi i32 [ 0, %2 ], [ %10, %6 ]
  ret i32 %12
}